Certificate:
    Data:
        Version: 3 (0x2)
        Serial Number:
            e9:f9:50:69:1c:42:df:c8:c4:e7:d2:38:74:8a:aa:55
        Signature Algorithm: sha256WithRSAEncryption
        Issuer: C=US, ST=California, L=San Francisco, O=OpenVPN, OU=OpenVPN, CN=Easy-RSA CA/emailAddress=openvpn@openvpn.net
        Validity
            Not Before: Mar 22 06:19:44 2024 GMT
            Not After : Mar 20 06:19:44 2034 GMT
        Subject: C=US, ST=California, L=San Francisco, O=OpenVPN, OU=OpenVPN, CN=client1/emailAddress=openvpn@openvpn.net
        Subject Public Key Info:
            Public Key Algorithm: rsaEncryption
                Public-Key: (2048 bit)
                Modulus:
                    00:b6:10:53:30:4b:91:26:ba:ab:b7:01:49:a7:84:
                    70:55:ea:46:45:fe:02:2c:ef:50:a5:5e:59:8f:da:
                    f0:30:af:e5:27:53:e9:71:69:5f:da:be:f7:e1:b3:
                    36:2c:31:cd:9f:eb:06:44:38:2a:b4:e3:90:80:21:
                    74:6d:ad:2e:d0:3d:01:76:43:a8:30:9c:b0:3f:45:
                    05:bc:02:af:d5:90:96:3a:54:de:d1:ee:f6:b8:39:
                    8b:85:c1:75:8a:3a:43:04:ef:ff:e0:53:78:1b:4d:
                    c7:d7:c9:18:a7:15:95:d1:6c:dd:0c:3d:c2:da:89:
                    c8:06:8d:1b:b3:5d:eb:f3:fe:0c:df:2a:d8:28:f9:
                    10:28:88:5a:1e:71:ef:0f:46:c9:3b:50:55:84:f6:
                    7f:bb:09:bf:75:8d:2d:f0:b5:67:32:65:e4:7a:66:
                    09:d1:47:fe:b1:c2:b9:b3:dc:19:14:3a:1f:3e:a0:
                    e4:e4:d1:df:af:b7:a1:09:89:9c:ef:b7:f9:56:77:
                    e8:27:92:27:c1:b7:59:dc:9a:5a:58:9a:93:c2:89:
                    32:27:ce:57:9b:d0:8a:a6:da:82:c1:25:20:9a:f9:
                    54:b6:18:12:40:25:d7:51:a3:7c:a4:e1:70:74:83:
                    93:03:9f:b3:08:2c:e8:9f:e4:12:05:98:e4:41:bc:
                    87:f9
                Exponent: 65537 (0x10001)
        X509v3 extensions:
            X509v3 Basic Constraints:
                CA:FALSE
            X509v3 Subject Key Identifier:
                73:26:82:9C:D9:29:91:C9:54:97:EC:8E:5D:80:C2:2C:FC:33:55:AC
            X509v3 Authority Key Identifier:
                keyid:24:AF:DA:D8:F3:74:31:83:A6:12:51:3B:E5:95:9F:AA:2F:2C:BB:4E
                DirName:/C=US/ST=California/L=San Francisco/O=OpenVPN/OU=OpenVPN/CN=Easy-RSA CA/emailAddress=openvpn@openvpn.net
                serial:06:A7:D2:14:AB:75:9D:17:57:0D:28:0B:C0:E9:F1:B3:F5:FA:92:8D
            X509v3 Extended Key Usage:
                TLS Web Client Authentication
            X509v3 Key Usage:
                Digital Signature
    Signature Algorithm: sha256WithRSAEncryption
    Signature Value:
        82:1e:d3:90:6c:de:e1:3b:25:31:f3:e0:9c:19:a2:5f:7a:54:
        49:bb:d7:1e:0b:e1:59:de:48:ad:5d:fc:6d:e6:37:63:03:c4:
        99:ce:4b:bf:4f:28:6b:32:a5:37:b2:e3:16:75:14:c9:19:b4:
        1e:b3:9d:a4:96:44:1e:96:d3:6b:77:d6:e0:31:ee:78:ba:65:
        6d:81:21:fb:40:d8:72:ca:a7:77:c0:6e:4a:ce:26:e2:d6:ba:
        dd:20:45:69:44:a3:52:f3:15:f9:22:70:f0:be:59:ac:1d:d8:
        d9:76:db:07:3a:a3:88:ea:f0:2e:6b:26:97:e9:77:75:8d:eb:
        4e:d1:2b:40:77:a9:56:e9:2e:81:f0:9e:fa:5a:c7:bc:91:bb:
        c1:87:b2:16:ef:43:b5:47:22:85:08:03:21:15:84:70:3e:f4:
        39:b5:a4:b2:fd:da:ba:7f:12:00:79:61:7c:f6:22:cb:36:91:
        5a:f9:d6:4c:ec:be:61:55:a7:df:93:05:fd:cc:5f:44:e5:00:
        2c:fd:61:3c:28:b8:f1:19:4c:57:f0:fc:4a:8d:44:dd:f5:1a:
        05:1d:43:9b:ba:00:2c:16:bf:3e:1d:de:be:00:a7:e5:b1:fe:
        43:98:bb:b8:fc:f0:c0:df:53:17:26:5b:bf:7b:51:20:0a:48:
        da:8b:4d:2d
-----BEGIN CERTIFICATE-----
MIIE5jCCA86gAwIBAgIRAOn5UGkcQt/IxOfSOHSKqlUwDQYJKoZIhvcNAQELBQAw
gZgxCzAJBgNVBAYTAlVTMRMwEQYDVQQIDApDYWxpZm9ybmlhMRYwFAYDVQQHDA1T
YW4gRnJhbmNpc2NvMRAwDgYDVQQKDAdPcGVuVlBOMRAwDgYDVQQLDAdPcGVuVlBO
MRQwEgYDVQQDDAtFYXN5LVJTQSBDQTEiMCAGCSqGSIb3DQEJARYTb3BlbnZwbkBv
cGVudnBuLm5ldDAeFw0yNDAzMjIwNjE5NDRaFw0zNDAzMjAwNjE5NDRaMIGUMQsw
CQYDVQQGEwJVUzETMBEGA1UECAwKQ2FsaWZvcm5pYTEWMBQGA1UEBwwNU2FuIEZy
YW5jaXNjbzEQMA4GA1UECgwHT3BlblZQTjEQMA4GA1UECwwHT3BlblZQTjEQMA4G
A1UEAwwHY2xpZW50MTEiMCAGCSqGSIb3DQEJARYTb3BlbnZwbkBvcGVudnBuLm5l
dDCCASIwDQYJKoZIhvcNAQEBBQADggEPADCCAQoCggEBALYQUzBLkSa6q7cBSaeE
cFXqRkX+AizvUKVeWY/a8DCv5SdT6XFpX9q+9+GzNiwxzZ/rBkQ4KrTjkIAhdG2t
LtA9AXZDqDCcsD9FBbwCr9WQljpU3tHu9rg5i4XBdYo6QwTv/+BTeBtNx9fJGKcV
ldFs3Qw9wtqJyAaNG7Nd6/P+DN8q2Cj5ECiIWh5x7w9GyTtQVYT2f7sJv3WNLfC1
ZzJl5HpmCdFH/rHCubPcGRQ6Hz6g5OTR36+3oQmJnO+3+VZ36CeSJ8G3WdyaWlia
k8KJMifOV5vQiqbagsElIJr5VLYYEkAl11GjfKThcHSDkwOfswgs6J/kEgWY5EG8
h/kCAwEAAaOCASswggEnMAkGA1UdEwQCMAAwHQYDVR0OBBYEFHMmgpzZKZHJVJfs
jl2Awiz8M1WsMIHYBgNVHSMEgdAwgc2AFCSv2tjzdDGDphJRO+WVn6ovLLtOoYGe
pIGbMIGYMQswCQYDVQQGEwJVUzETMBEGA1UECAwKQ2FsaWZvcm5pYTEWMBQGA1UE
BwwNU2FuIEZyYW5jaXNjbzEQMA4GA1UECgwHT3BlblZQTjEQMA4GA1UECwwHT3Bl
blZQTjEUMBIGA1UEAwwLRWFzeS1SU0EgQ0ExIjAgBgkqhkiG9w0BCQEWE29wZW52
cG5Ab3BlbnZwbi5uZXSCFAan0hSrdZ0XVw0oC8Dp8bP1+pKNMBMGA1UdJQQMMAoG
CCsGAQUFBwMCMAsGA1UdDwQEAwIHgDANBgkqhkiG9w0BAQsFAAOCAQEAgh7TkGze
4TslMfPgnBmiX3pUSbvXHgvhWd5IrV38beY3YwPEmc5Lv08oazKlN7LjFnUUyRm0
HrOdpJZEHpbTa3fW4DHueLplbYEh+0DYcsqnd8BuSs4m4ta63SBFaUSjUvMV+SJw
8L5ZrB3Y2XbbBzqjiOrwLmsml+l3dY3rTtErQHepVukugfCe+lrHvJG7wYeyFu9D
tUcihQgDIRWEcD70ObWksv3aun8SAHlhfPYiyzaRWvnWTOy+YVWn35MF/cxfROUA
LP1hPCi48RlMV/D8So1E3fUaBR1Dm7oALBa/Ph3evgCn5bH+Q5i7uPzwwN9TFyZb
v3tRIApI2otNLQ==
-----END CERTIFICATE-----
