Certificate:
    Data:
        Version: 3 (0x2)
        Serial Number:
            b1:1e:3b:ff:93:87:1e:fe:df:f0:71:38:c3:91:4c:3b
        Signature Algorithm: sha256WithRSAEncryption
        Issuer: C=US, ST=California, L=San Francisco, O=OpenVPN, OU=OpenVPN, CN=Easy-RSA CA/emailAddress=openvpn@openvpn.net
        Validity
            Not Before: Mar 22 06:19:39 2024 GMT
            Not After : Mar 20 06:19:39 2034 GMT
        Subject: C=US, ST=California, L=San Francisco, O=OpenVPN, OU=OpenVPN, CN=server/emailAddress=openvpn@openvpn.net
        Subject Public Key Info:
            Public Key Algorithm: rsaEncryption
                Public-Key: (2048 bit)
                Modulus:
                    00:be:8e:12:68:26:b6:f6:04:52:4b:89:24:60:26:
                    ab:dc:2f:51:46:04:8b:da:0c:76:1d:b5:e9:27:8f:
                    1f:fa:ee:af:b8:1f:51:61:2f:55:ee:b3:cd:ba:35:
                    e6:02:26:c9:e9:2b:e7:18:a5:7b:ca:4d:b7:56:6e:
                    0c:04:74:86:79:9f:4d:01:de:fb:65:8b:68:00:60:
                    87:c8:34:c2:13:57:ea:5f:e7:90:d9:3c:98:8f:b1:
                    54:d1:07:f1:ad:ec:4b:4b:95:bf:f5:37:7c:c7:ce:
                    a8:cb:eb:b4:ce:1a:0e:6e:92:31:eb:2a:57:ec:57:
                    69:6b:a4:be:ba:87:9e:14:1a:43:9e:8b:af:b7:95:
                    2b:1a:97:5a:74:6b:7b:73:e7:b9:70:26:05:c9:90:
                    2d:2b:77:d5:4a:0c:3b:2a:12:c5:bf:df:cf:e8:50:
                    7b:11:d4:73:9a:86:7e:35:27:a1:29:76:b5:3f:73:
                    d7:fc:c2:81:1a:11:81:3d:18:06:32:6b:d5:fd:d6:
                    62:c1:16:ba:f6:06:5f:bd:8c:06:c9:67:da:c9:a5:
                    78:3b:0c:cd:f2:3a:68:fb:92:41:16:55:cc:1c:93:
                    37:e7:78:aa:01:35:08:cc:2d:24:12:9a:ea:b2:0d:
                    f5:3b:ff:34:61:b2:3a:2c:66:48:9f:f5:19:7b:ae:
                    57:e1
                Exponent: 65537 (0x10001)
        X509v3 extensions:
            X509v3 Basic Constraints:
                CA:FALSE
            X509v3 Subject Key Identifier:
                77:06:99:F3:7D:C2:EB:EA:A0:30:E4:CE:E7:32:41:19:90:9A:37:00
            X509v3 Authority Key Identifier:
                keyid:24:AF:DA:D8:F3:74:31:83:A6:12:51:3B:E5:95:9F:AA:2F:2C:BB:4E
                DirName:/C=US/ST=California/L=San Francisco/O=OpenVPN/OU=OpenVPN/CN=Easy-RSA CA/emailAddress=openvpn@openvpn.net
                serial:06:A7:D2:14:AB:75:9D:17:57:0D:28:0B:C0:E9:F1:B3:F5:FA:92:8D
            X509v3 Extended Key Usage:
                TLS Web Server Authentication
            X509v3 Key Usage:
                Digital Signature, Key Encipherment
            X509v3 Subject Alternative Name:
                DNS:server
    Signature Algorithm: sha256WithRSAEncryption
    Signature Value:
        93:3e:25:d0:be:68:1d:ed:5d:f3:ba:f4:f7:67:ea:df:f2:9f:
        07:63:90:e4:d8:e1:a2:f1:23:ce:bd:cc:e6:a8:1f:95:03:b9:
        49:2d:04:8b:cc:88:6f:89:81:68:5b:9d:9a:03:8b:46:0f:9b:
        ff:68:a0:21:7f:bc:72:41:f0:fa:74:e1:0f:04:df:84:1b:69:
        84:67:aa:84:c6:1c:5c:22:3a:bc:66:2d:51:0e:6d:d8:ca:b7:
        c7:7d:98:02:4f:df:85:93:ad:17:61:09:74:c5:6e:9d:8e:b9:
        4b:b7:76:8d:dd:c9:5b:ca:46:e3:f8:5a:f0:a1:9c:a0:93:17:
        0d:d8:b5:7d:92:3d:ec:34:a7:0b:b9:ec:52:c1:69:28:6e:bd:
        c2:e0:da:4f:4a:ec:46:62:8c:f7:0b:db:d7:9a:d4:45:d1:84:
        ab:9f:41:c1:4e:aa:3a:53:19:db:60:d9:a1:47:4d:c7:8a:fb:
        42:a4:47:be:b3:75:da:13:e0:34:74:25:34:24:14:b3:71:d4:
        94:ae:dc:e9:e5:78:87:72:e0:5a:ed:56:d4:ac:bf:d4:31:1f:
        a9:bc:62:54:75:00:58:db:2e:18:98:e8:e4:1b:52:3a:ab:8e:
        3a:ce:f1:21:20:16:fb:aa:7b:c5:28:6a:f5:74:4b:7b:a6:05:
        07:de:2f:95
-----BEGIN CERTIFICATE-----
MIIE+DCCA+CgAwIBAgIRALEeO/+Thx7+3/BxOMORTDswDQYJKoZIhvcNAQELBQAw
gZgxCzAJBgNVBAYTAlVTMRMwEQYDVQQIDApDYWxpZm9ybmlhMRYwFAYDVQQHDA1T
YW4gRnJhbmNpc2NvMRAwDgYDVQQKDAdPcGVuVlBOMRAwDgYDVQQLDAdPcGVuVlBO
MRQwEgYDVQQDDAtFYXN5LVJTQSBDQTEiMCAGCSqGSIb3DQEJARYTb3BlbnZwbkBv
cGVudnBuLm5ldDAeFw0yNDAzMjIwNjE5MzlaFw0zNDAzMjAwNjE5MzlaMIGTMQsw
CQYDVQQGEwJVUzETMBEGA1UECAwKQ2FsaWZvcm5pYTEWMBQGA1UEBwwNU2FuIEZy
YW5jaXNjbzEQMA4GA1UECgwHT3BlblZQTjEQMA4GA1UECwwHT3BlblZQTjEPMA0G
A1UEAwwGc2VydmVyMSIwIAYJKoZIhvcNAQkBFhNvcGVudnBuQG9wZW52cG4ubmV0
MIIBIjANBgkqhkiG9w0BAQEFAAOCAQ8AMIIBCgKCAQEAvo4SaCa29gRSS4kkYCar
3C9RRgSL2gx2HbXpJ48f+u6vuB9RYS9V7rPNujXmAibJ6SvnGKV7yk23Vm4MBHSG
eZ9NAd77ZYtoAGCHyDTCE1fqX+eQ2TyYj7FU0QfxrexLS5W/9Td8x86oy+u0zhoO
bpIx6ypX7Fdpa6S+uoeeFBpDnouvt5UrGpdadGt7c+e5cCYFyZAtK3fVSgw7KhLF
v9/P6FB7EdRzmoZ+NSehKXa1P3PX/MKBGhGBPRgGMmvV/dZiwRa69gZfvYwGyWfa
yaV4OwzN8jpo+5JBFlXMHJM353iqATUIzC0kEprqsg31O/80YbI6LGZIn/UZe65X
4QIDAQABo4IBPjCCATowCQYDVR0TBAIwADAdBgNVHQ4EFgQUdwaZ833C6+qgMOTO
5zJBGZCaNwAwgdgGA1UdIwSB0DCBzYAUJK/a2PN0MYOmElE75ZWfqi8su06hgZ6k
gZswgZgxCzAJBgNVBAYTAlVTMRMwEQYDVQQIDApDYWxpZm9ybmlhMRYwFAYDVQQH
DA1TYW4gRnJhbmNpc2NvMRAwDgYDVQQKDAdPcGVuVlBOMRAwDgYDVQQLDAdPcGVu
VlBOMRQwEgYDVQQDDAtFYXN5LVJTQSBDQTEiMCAGCSqGSIb3DQEJARYTb3BlbnZw
bkBvcGVudnBuLm5ldIIUBqfSFKt1nRdXDSgLwOnxs/X6ko0wEwYDVR0lBAwwCgYI
KwYBBQUHAwEwCwYDVR0PBAQDAgWgMBEGA1UdEQQKMAiCBnNlcnZlcjANBgkqhkiG
9w0BAQsFAAOCAQEAkz4l0L5oHe1d87r092fq3/KfB2OQ5NjhovEjzr3M5qgflQO5
SS0Ei8yIb4mBaFudmgOLRg+b/2igIX+8ckHw+nThDwTfhBtphGeqhMYcXCI6vGYt
UQ5t2Mq3x32YAk/fhZOtF2EJdMVunY65S7d2jd3JW8pG4/ha8KGcoJMXDdi1fZI9
7DSnC7nsUsFpKG69wuDaT0rsRmKM9wvb15rURdGEq59BwU6qOlMZ22DZoUdNx4r7
QqRHvrN12hPgNHQlNCQUs3HUlK7c6eV4h3LgWu1W1Ky/1DEfqbxiVHUAWNsuGJjo
5BtSOquOOs7xISAW+6p7xShq9XRLe6YFB94vlQ==
-----END CERTIFICATE-----
